target datalayout = "e-m:e-p270:32:32-p271:32:32-p272:64:64-i64:64-i128:128-f80:128-n8:16:32:64-S128"
target triple = "x86_64-pc-linux-gnu"

@.str.4 = private unnamed_addr constant [25 x i8] c"<style type=\22text/css\22>\0A\00", align 1
@.str.5 = private unnamed_addr constant [10 x i8] c"</style>\0A\00", align 1
@.str.8 = private unnamed_addr constant [95 x i8] c"<!DOCTYPE html PUBLIC \22-//W3C//DTD XHTML 1.0 Transitional//EN\22 \22DTD/xhtml1-transitional.dtd\22>\0A\00", align 1
@.str.9 = private unnamed_addr constant [44 x i8] c"<html xmlns=\22http://www.w3.org/1999/xhtml\22>\00", align 1
@.str.10 = private unnamed_addr constant [8 x i8] c"<head>\0A\00", align 1
@.str.11 = private unnamed_addr constant [34 x i8] c"<title>PHP %s - phpinfo()</title>\00", align 1
@.str.12 = private unnamed_addr constant [10 x i8] c"8.4.0-dev\00", align 1
@.str.13 = private unnamed_addr constant [60 x i8] c"<meta name=\22ROBOTS\22 content=\22NOINDEX,NOFOLLOW,NOARCHIVE\22 />\00", align 1
@.str.14 = private unnamed_addr constant [9 x i8] c"</head>\0A\00", align 1
@.str.15 = private unnamed_addr constant [28 x i8] c"<body><div class=\22center\22>\0A\00", align 1

; Function Attrs: nounwind uwtable
define void @php_info_print_style() #0 {
  %1 = call i32 (ptr, ...) @php_info_printf(ptr noundef @.str.4)
  call void @php_info_print_css()
  %2 = call i32 (ptr, ...) @php_info_printf(ptr noundef @.str.5)
  ret void
}

; Function Attrs: nounwind uwtable
define void @php_print_info_htmlhead() #0 {
  %1 = alloca ptr, align 8
  %2 = alloca ptr, align 8
  %3 = alloca ptr, align 8
  %4 = alloca ptr, align 8
  %5 = alloca ptr, align 8
  %6 = alloca ptr, align 8
  store ptr @.str.8, ptr %1, align 8
  %7 = load ptr, ptr %1, align 8
  %8 = load ptr, ptr %1, align 8
  %9 = call i64 @strlen(ptr noundef %8) #9
  %10 = call i64 @php_output_write(ptr noundef %7, i64 noundef %9) #10
  store ptr @.str.9, ptr %2, align 8
  %11 = load ptr, ptr %2, align 8
  %12 = load ptr, ptr %2, align 8
  %13 = call i64 @strlen(ptr noundef %12) #9
  %14 = call i64 @php_output_write(ptr noundef %11, i64 noundef %13) #10
  store ptr @.str.10, ptr %3, align 8
  %15 = load ptr, ptr %3, align 8
  %16 = load ptr, ptr %3, align 8
  %17 = call i64 @strlen(ptr noundef %16) #9
  %18 = call i64 @php_output_write(ptr noundef %15, i64 noundef %17) #10
  call void @php_info_print_style()
  %19 = call i32 (ptr, ...) @php_info_printf(ptr noundef @.str.11, ptr noundef @.str.12)
  store ptr @.str.13, ptr %4, align 8
  %20 = load ptr, ptr %4, align 8
  %21 = load ptr, ptr %4, align 8
  %22 = call i64 @strlen(ptr noundef %21) #9
  %23 = call i64 @php_output_write(ptr noundef %20, i64 noundef %22) #10
  store ptr @.str.14, ptr %5, align 8
  %24 = load ptr, ptr %5, align 8
  %25 = load ptr, ptr %5, align 8
  %26 = call i64 @strlen(ptr noundef %25) #9
  %27 = call i64 @php_output_write(ptr noundef %24, i64 noundef %26) #10
  store ptr @.str.15, ptr %6, align 8
  %28 = load ptr, ptr %6, align 8
  %29 = load ptr, ptr %6, align 8
  %30 = call i64 @strlen(ptr noundef %29) #9
  %31 = call i64 @php_output_write(ptr noundef %28, i64 noundef %30) #10
  ret void
}