; Function Attrs: nounwind uwtable
define void @php_print_info_htmlhead() local_unnamed_addr #0 {
  %1 = tail call i64 @php_output_write(ptr noundef nonnull @.str.8, i64 noundef 94) #14
  %2 = tail call i64 @php_output_write(ptr noundef nonnull @.str.9, i64 noundef 43) #14
  %3 = tail call i64 @php_output_write(ptr noundef nonnull @.str.10, i64 noundef 7) #14
  tail call void (ptr, ...) @php_info_printf(ptr noundef nonnull @.str.4)
  tail call void @php_info_print_css() #14
  tail call void (ptr, ...) @php_info_printf(ptr noundef nonnull @.str.5)
  tail call void (ptr, ...) @php_info_printf(ptr noundef nonnull @.str.11, ptr noundef nonnull @.str.12)
  %4 = tail call i64 @php_output_write(ptr noundef nonnull @.str.13, i64 noundef 59) #14
  %5 = tail call i64 @php_output_write(ptr noundef nonnull @.str.14, i64 noundef 8) #14
  %6 = tail call i64 @php_output_write(ptr noundef nonnull @.str.15, i64 noundef 27) #14
  ret void
}